target datalayout = "e-m:e-p270:32:32-p271:32:32-p272:64:64-i64:64-i128:128-f80:128-n8:16:32:64-S128"
target triple = "x86_64-pc-linux-gnu"

%class.G1HeapSizingPolicy = type <{ ptr, ptr, i32, i32, double, i32, [4 x i8] }>

; Function Attrs: mustprogress nounwind uwtable
define hidden void @_ZN18G1HeapSizingPolicy22clear_ratio_check_dataEv(ptr noundef nonnull align 8 dereferenceable(36) %0) #1 align 2 {
  %2 = alloca ptr, align 8
  store ptr %0, ptr %2, align 8
  %3 = load ptr, ptr %2, align 8
  %4 = getelementptr inbounds %class.G1HeapSizingPolicy, ptr %3, i32 0, i32 3
  store i32 0, ptr %4, align 4
  %5 = getelementptr inbounds %class.G1HeapSizingPolicy, ptr %3, i32 0, i32 4
  store double 0.000000e+00, ptr %5, align 8
  %6 = getelementptr inbounds %class.G1HeapSizingPolicy, ptr %3, i32 0, i32 5
  store i32 0, ptr %6, align 8
  ret void
}

; Function Attrs: mustprogress nounwind uwtable
define linkonce_odr hidden noundef i32 @_ZNK11G1Analytics30number_of_recorded_pause_timesEv(ptr noundef nonnull align 8 dereferenceable(2048) %0) #1 comdat align 2 {
  %2 = alloca ptr, align 8
  store ptr %0, ptr %2, align 8
  ret i32 10
}

; Function Attrs: mustprogress nounwind uwtable
define hidden void @_ZN18G1HeapSizingPolicyC2EPK15G1CollectedHeapPK11G1Analytics(ptr noundef nonnull align 8 dereferenceable(36) %0, ptr noundef %1, ptr noundef %2) unnamed_addr #1 align 2 {
  %4 = alloca ptr, align 8
  %5 = alloca ptr, align 8
  %6 = alloca ptr, align 8
  store ptr %0, ptr %4, align 8
  store ptr %1, ptr %5, align 8
  store ptr %2, ptr %6, align 8
  %7 = load ptr, ptr %4, align 8
  %8 = getelementptr inbounds %class.G1HeapSizingPolicy, ptr %7, i32 0, i32 0
  %9 = load ptr, ptr %5, align 8
  store ptr %9, ptr %8, align 8
  %10 = getelementptr inbounds %class.G1HeapSizingPolicy, ptr %7, i32 0, i32 1
  %11 = load ptr, ptr %6, align 8
  store ptr %11, ptr %10, align 8
  %12 = getelementptr inbounds %class.G1HeapSizingPolicy, ptr %7, i32 0, i32 2
  %13 = load ptr, ptr %6, align 8
  %14 = call noundef i32 @_ZNK11G1Analytics30number_of_recorded_pause_timesEv(ptr noundef nonnull align 8 dereferenceable(2048) %13)
  store i32 %14, ptr %12, align 8
  call void @_ZN18G1HeapSizingPolicy22clear_ratio_check_dataEv(ptr noundef nonnull align 8 dereferenceable(36) %7)
  ret void
}