; Function Attrs: mustprogress nofree norecurse nosync nounwind willreturn memory(argmem: write) uwtable
define hidden void @_ZN18G1HeapSizingPolicyC2EPK15G1CollectedHeapPK11G1Analytics(ptr nocapture noundef nonnull writeonly align 8 dereferenceable(36) %0, ptr noundef %1, ptr noundef %2) unnamed_addr #1 align 2 {
  store ptr %1, ptr %0, align 8
  %4 = getelementptr inbounds i8, ptr %0, i64 8
  store ptr %2, ptr %4, align 8
  %5 = getelementptr inbounds i8, ptr %0, i64 16
  store i32 10, ptr %5, align 8
  %6 = getelementptr inbounds i8, ptr %0, i64 20
  tail call void @llvm.memset.p0.i64(ptr noundef nonnull align 4 dereferenceable(16) %6, i8 0, i64 16, i1 false)
  ret void
}